(lp1
S'inform'
p2
aS'technolog'
p3
aS'workforc'
p4
aS'itwf'
p5
aS'propos'
p6
aS'id'
p7
aS'eia0119880'
p8
aS'investig'
p9
aS'ron'
p10
aS'eglash'
p11
aS'institut'
p12
aS'renssela'
p13
aS'polytechn'
p14
aS'institut'
p15
aS'titl'
p16
aS'cultur'
p17
aS'situat'
p18
aS'tool'
p19
aS'award'
p20
aS'provid'
p21
aS'support'
p22
aS'renssela'
p23
aS'polytechn'
p24
aS'institut'
p25
aS'rpi'
p26
aS'develop'
p27
aS'culturallysitu'
p28
aS'design'
p29
aS'tool'
p30
aS'motiv'
p31
aS'ethnic'
p32
aS'minor'
p33
aS'student'
p34
aS'learn'
p35
aS'mathemat'
p36
aS'pursu'
p37
aS'career'
p38
aS'inform'
p39
aS'technolog'
p40
aS'tool'
p41
aS'integr'
p42
aS'standard'
p43
aS'curricula'
p44
aS'use'
p45
aS'approxim'
p46
aS'one'
p47
aS'thousand'
p48
aS'middl'
p49
aS'school'
p50
aS'student'
p51
aS'renssela'
p52
aS'polytechn'
p53
aS'institut'
p54
aS'local'
p55
aS'gearup'
p56
aS'program'
p57
aS'us'
p58
aS'depart'
p59
aS'educ'
p60
aS'gain'
p61
aS'earli'
p62
aS'awar'
p63
aS'readi'
p64
aS'undergradu'
p65
aS'program'
p66
aS'use'
p67
aS'design'
p68
aS'tool'
p69
aS'evalu'
p70
aS'period'
p71
aS'result'
p72
aS'dissemin'
p73
aS'wide'
p74
a.