(lp1
S'provid'
p2
aS'support'
p3
aS'servic'
p4
aS'relat'
p5
aS'nsf'
p6
aS'program'
p7
aS'solicit'
p8
aS'nsf'
p9
aS'faculti'
p10
aS'earli'
p11
aS'career'
p12
aS'develop'
p13
aS'career'
p14
aS'program'
p15
a.