(lp1
S'career'
p2
aS'make'
p3
aS'comput'
p4
aS'vision'
p5
aS'success'
p6
aS'scatter'
p7
aS'media'
p8
aS'pi'
p9
aS'srinivasa'
p10
aS'narasimhan'
p11
aS'carnegi'
p12
aS'mellon'
p13
aS'univers'
p14
aS'recent'
p15
aS'year'
p16
aS'comput'
p17
aS'vision'
p18
aS'seen'
p19
aS'signific'
p20
aS'advanc'
p21
aS'core'
p22
aS'area'
p23
aS'imag'
p24
aS'sens'
p25
aS'interpret'
p26
aS'success'
p27
aS'result'
p28
aS'great'
p29
aS'demand'
p30
aS'vision'
p31
aS'techniqu'
p32
aS'applic'
p33
aS'domain'
p34
aS'rang'
p35
aS'intellig'
p36
aS'transport'
p37
aS'secur'
p38
aS'oceanographi'
p39
aS'underwat'
p40
aS'imag'
p41
aS'astronomi'
p42
aS'telescop'
p43
aS'satellit'
p44
aS'imag'
p45
aS'even'
p46
aS'biolog'
p47
aS'medic'
p48
aS'system'
p49
aS'microscop'
p50
aS'medic'
p51
aS'imag'
p52
aS'unfortun'
p53
aS'one'
p54
aS'fundament'
p55
aS'hurdl'
p56
aS'stop'
p57
aS'vision'
p58
aS'success'
p59
aS'impact'
p60
aS'area'
p61
aS'assumpt'
p62
aS'light'
p63
aS'propag'
p64
aS'transpar'
p65
aS'medium'
p66
aS'pure'
p67
aS'air'
p68
aS'without'
p69
aS'alter'
p70
aS'thu'
p71
aS'today'
p72
aS'vision'
p73
aS'system'
p74
aS'fail'
p75
aS'perform'
p76
aS'presenc'
p77
aS'light'
p78
aS'scatter'
p79
aS'wide'
p80
aS'rang'
p81
aS'particul'
p82
aS'media'
p83
aS'bad'
p84
aS'weather'
p85
aS'fog'
p86
aS'mist'
p87
aS'haze'
p88
aS'snow'
p89
aS'rain'
p90
aS'murki'
p91
aS'water'
p92
aS'smoke'
p93
aS'dust'
p94
aS'smog'
p95
aS'biolog'
p96
aS'tissu'
p97
aS'research'
p98
aS'devot'
p99
aS'make'
p100
aS'comput'
p101
aS'vision'
p102
aS'success'
p103
aS'scatter'
p104
aS'media'
p105
aS'comput'
p106
aS'vision'
p107
aS'imag'
p108
aS'format'
p109
aS'defin'
p110
aS'geometr'
p111
aS'map'
p112
aS'world'
p113
aS'imag'
p114
aS'inher'
p115
aS'lead'
p116
aS'loss'
p117
aS'inform'
p118
aS'pi'
p119
aS'strongli'
p120
aS'argu'
p121
aS'light'
p122
aS'scatter'
p123
aS'must'
p124
aS'view'
p125
aS'nois'
p126
aS'tradit'
p127
aS'vision'
p128
aS'algorithm'
p129
aS'need'
p130
aS'overcom'
p131
aS'rather'
p132
aS'new'
p133
aS'form'
p134
aS'encod'
p135
aS'light'
p136
aS'henc'
p137
aS'imag'
p138
aS'key'
p139
aS'idea'
p140
aS'deriv'
p141
aS'seri'
p142
aS'compact'
p143
aS'physic'
p144
aS'base'
p145
aS'analyt'
p146
aS'semianalyt'
p147
aS'model'
p148
aS'light'
p149
aS'transport'
p150
aS'repres'
p151
aS'imag'
p152
aS'format'
p153
aS'scatter'
p154
aS'media'
p155
aS'model'
p156
aS'encod'
p157
aS'lost'
p158
aS'third'
p159
aS'dimens'
p160
aS'back'
p161
aS'imag'
p162
aS'analyt'
p163
aS'form'
p164
aS'model'
p165
aS'though'
p166
aS'elabor'
p167
aS'slow'
p168
aS'simul'
p169
aS'comput'
p170
aS'physic'
p171
aS'accur'
p172
aS'enough'
p173
aS'model'
p174
aS'aggreg'
p175
aS'scatter'
p176
aS'effect'
p177
aS'imag'
p178
aS'thu'
p179
aS'make'
p180
aS'possibl'
p181
aS'invert'
p182
aS'light'
p183
aS'transport'
p184
aS'invers'
p185
aS'light'
p186
aS'transport'
p187
aS'method'
p188
aS'appli'
p189
aS'conjunct'
p190
aS'tradit'
p191
aS'vision'
p192
aS'algorithm'
p193
aS'match'
p194
aS'perform'
p195
aS'clear'
p196
aS'air'
p197
aS'result'
p198
aS'research'
p199
aS'broad'
p200
aS'longterm'
p201
aS'impact'
p202
aS'across'
p203
aS'wide'
p204
aS'varieti'
p205
aS'domain'
p206
aS'semi'
p207
aS'automat'
p208
aS'intellig'
p209
aS'transport'
p210
aS'system'
p211
aS'assist'
p212
aS'driver'
p213
aS'navig'
p214
aS'abl'
p215
aS'oper'
p216
aS'common'
p217
aS'bad'
p218
aS'weather'
p219
aS'condit'
p220
aS'fog'
p221
aS'snow'
p222
aS'rain'
p223
aS'inde'
p224
aS'requir'
p225
aS'similarli'
p226
aS'field'
p227
aS'robot'
p228
aS'navig'
p229
aS'better'
p230
aS'hazard'
p231
aS'environ'
p232
aS'smoke'
p233
aS'dust'
p234
aS'underwat'
p235
aS'explor'
p236
aS'safeti'
p237
aS'rescu'
p238
aS'task'
p239
aS'made'
p240
aS'possibl'
p241
aS'murki'
p242
aS'underwat'
p243
aS'condit'
p244
aS'understand'
p245
aS'optic'
p246
aS'properti'
p247
aS'tissu'
p248
aS'assist'
p249
aS'doctor'
p250
aS'medic'
p251
aS'diagnosi'
p252
aS'tumor'
p253
aS'cancer'
p254
aS'final'
p255
aS'deriv'
p256
aS'model'
p257
aS'use'
p258
aS'also'
p259
aS'add'
p260
aS'realist'
p261
aS'effect'
p262
aS'scatter'
p263
aS'imageri'
p264
aS'digit'
p265
aS'entertain'
p266
aS'movi'
p267
aS'video'
p268
aS'game'
p269
aS'scientif'
p270
aS'educ'
p271
aS'train'
p272
aS'url'
p273
aS'http'
p274
aS'wwwcscmuedusrinivascar'
p275
a.